target datalayout = "e-m:e-p270:32:32-p271:32:32-p272:64:64-i64:64-i128:128-f80:128-n8:16:32:64-S128"
target triple = "x86_64-pc-linux-gnu"

%struct.Gia_Man_t_ = type { ptr, ptr, i32, i32, i32, i32, ptr, ptr, i32, i32, i32, ptr, ptr, %struct.Vec_Int_t_, %struct.Vec_Int_t_, i32, i32, i32, %struct.Vec_Int_t_, ptr, ptr, ptr, i32, i32, i32, i32, ptr, ptr, ptr, ptr, ptr, i32, i32, ptr, i32, ptr, ptr, ptr, ptr, ptr, ptr, ptr, ptr, ptr, ptr, ptr, ptr, ptr, ptr, ptr, ptr, ptr, ptr, %struct.Vec_Int_t_, %struct.Vec_Int_t_, ptr, ptr, ptr, ptr, ptr, ptr, ptr, ptr, ptr, ptr, ptr, ptr, ptr, ptr, ptr, ptr, ptr, ptr, ptr, ptr, ptr, i32, float, float, ptr, ptr, i32, ptr, ptr, ptr, ptr, ptr, ptr, ptr, ptr, ptr, ptr, ptr, ptr, ptr, ptr, ptr, i64, i64, ptr, ptr, i32, i32, i32, i32, i32, i32, i32, i32, i32, i32, i32, i32, ptr, ptr, ptr, ptr, ptr, ptr, ptr, ptr, i32, i32, i32, ptr, i32, i32, ptr, ptr, ptr, ptr, ptr, ptr, i32, i32, ptr, %struct.Vec_Int_t_, %struct.Vec_Int_t_, %struct.Vec_Int_t_, ptr, ptr, ptr }
%struct.Vec_Int_t_ = type { i32, i32, ptr }
%struct.Gia_Obj_t_ = type <{ i64, i32 }>

; Function Attrs: nounwind uwtable
define internal void @Vec_IntWriteEntry(ptr noundef %0, i32 noundef %1, i32 noundef %2) #0 {
  %4 = alloca ptr, align 8
  %5 = alloca i32, align 4
  %6 = alloca i32, align 4
  store ptr %0, ptr %4, align 8
  store i32 %1, ptr %5, align 4
  store i32 %2, ptr %6, align 4
  %7 = load i32, ptr %6, align 4
  %8 = load ptr, ptr %4, align 8
  %9 = getelementptr inbounds %struct.Vec_Int_t_, ptr %8, i32 0, i32 2
  %10 = load ptr, ptr %9, align 8
  %11 = load i32, ptr %5, align 4
  %12 = sext i32 %11 to i64
  %13 = getelementptr inbounds i32, ptr %10, i64 %12
  store i32 %7, ptr %13, align 4
  ret void
}

; Function Attrs: nounwind uwtable
define internal i32 @Vec_IntGetEntry(ptr noundef %0, i32 noundef %1) #0 {
  %3 = alloca ptr, align 8
  %4 = alloca i32, align 4
  store ptr %0, ptr %3, align 8
  store i32 %1, ptr %4, align 4
  %5 = load ptr, ptr %3, align 8
  %6 = load i32, ptr %4, align 4
  %7 = add nsw i32 %6, 1
  call void @Vec_IntFillExtra(ptr noundef %5, i32 noundef %7, i32 noundef 0)
  %8 = load ptr, ptr %3, align 8
  %9 = load i32, ptr %4, align 4
  %10 = call i32 @Vec_IntEntry(ptr noundef %8, i32 noundef %9)
  ret i32 %10
}

; Function Attrs: nounwind uwtable
define internal void @Vec_IntSetEntry(ptr noundef %0, i32 noundef %1, i32 noundef %2) #0 {
  %4 = alloca ptr, align 8
  %5 = alloca i32, align 4
  %6 = alloca i32, align 4
  store ptr %0, ptr %4, align 8
  store i32 %1, ptr %5, align 4
  store i32 %2, ptr %6, align 4
  %7 = load ptr, ptr %4, align 8
  %8 = load i32, ptr %5, align 4
  %9 = add nsw i32 %8, 1
  call void @Vec_IntFillExtra(ptr noundef %7, i32 noundef %9, i32 noundef 0)
  %10 = load ptr, ptr %4, align 8
  %11 = load i32, ptr %5, align 4
  %12 = load i32, ptr %6, align 4
  call void @Vec_IntWriteEntry(ptr noundef %10, i32 noundef %11, i32 noundef %12)
  ret void
}

; Function Attrs: nounwind uwtable
define internal ptr @Gia_ObjFanin0(ptr noundef %0) #0 {
  %2 = alloca ptr, align 8
  store ptr %0, ptr %2, align 8
  %3 = load ptr, ptr %2, align 8
  %4 = load ptr, ptr %2, align 8
  %5 = load i64, ptr %4, align 4
  %6 = and i64 %5, 536870911
  %7 = trunc i64 %6 to i32
  %8 = sext i32 %7 to i64
  %9 = sub i64 0, %8
  %10 = getelementptr inbounds %struct.Gia_Obj_t_, ptr %3, i64 %9
  ret ptr %10
}

; Function Attrs: nounwind uwtable
define internal i32 @Gia_ObjLevelId(ptr noundef %0, i32 noundef %1) #0 {
  %3 = alloca ptr, align 8
  %4 = alloca i32, align 4
  store ptr %0, ptr %3, align 8
  store i32 %1, ptr %4, align 4
  %5 = load ptr, ptr %3, align 8
  %6 = getelementptr inbounds %struct.Gia_Man_t_, ptr %5, i32 0, i32 21
  %7 = load ptr, ptr %6, align 8
  %8 = load i32, ptr %4, align 4
  %9 = call i32 @Vec_IntGetEntry(ptr noundef %7, i32 noundef %8)
  ret i32 %9
}

; Function Attrs: nounwind uwtable
define internal void @Gia_ObjSetLevelId(ptr noundef %0, i32 noundef %1, i32 noundef %2) #0 {
  %4 = alloca ptr, align 8
  %5 = alloca i32, align 4
  %6 = alloca i32, align 4
  store ptr %0, ptr %4, align 8
  store i32 %1, ptr %5, align 4
  store i32 %2, ptr %6, align 4
  %7 = load ptr, ptr %4, align 8
  %8 = getelementptr inbounds %struct.Gia_Man_t_, ptr %7, i32 0, i32 21
  %9 = load ptr, ptr %8, align 8
  %10 = load i32, ptr %5, align 4
  %11 = load i32, ptr %6, align 4
  call void @Vec_IntSetEntry(ptr noundef %9, i32 noundef %10, i32 noundef %11)
  ret void
}

; Function Attrs: nounwind uwtable
define internal i32 @Gia_ObjId(ptr noundef %0, ptr noundef %1) #0 {
  %3 = alloca ptr, align 8
  %4 = alloca ptr, align 8
  store ptr %0, ptr %3, align 8
  store ptr %1, ptr %4, align 8
  %5 = load ptr, ptr %4, align 8
  %6 = load ptr, ptr %3, align 8
  %7 = getelementptr inbounds %struct.Gia_Man_t_, ptr %6, i32 0, i32 6
  %8 = load ptr, ptr %7, align 8
  %9 = ptrtoint ptr %5 to i64
  %10 = ptrtoint ptr %8 to i64
  %11 = sub i64 %9, %10
  %12 = sdiv exact i64 %11, 12
  %13 = trunc i64 %12 to i32
  ret i32 %13
}

; Function Attrs: nounwind uwtable
define internal void @Gia_ObjSetCoLevel(ptr noundef %0, ptr noundef %1) #0 {
  %3 = alloca ptr, align 8
  %4 = alloca ptr, align 8
  store ptr %0, ptr %3, align 8
  store ptr %1, ptr %4, align 8
  %5 = load ptr, ptr %3, align 8
  %6 = load ptr, ptr %4, align 8
  %7 = load ptr, ptr %3, align 8
  %8 = load ptr, ptr %4, align 8
  %9 = call ptr @Gia_ObjFanin0(ptr noundef %8)
  %10 = call i32 @Gia_ObjLevel(ptr noundef %7, ptr noundef %9)
  call void @Gia_ObjSetLevel(ptr noundef %5, ptr noundef %6, i32 noundef %10)
  ret void
}

; Function Attrs: nounwind uwtable
define internal i32 @Gia_ObjIsCo(ptr noundef %0) #0 {
  %2 = alloca ptr, align 8
  store ptr %0, ptr %2, align 8
  %3 = load ptr, ptr %2, align 8
  %4 = load i64, ptr %3, align 4
  %5 = lshr i64 %4, 31
  %6 = and i64 %5, 1
  %7 = trunc i64 %6 to i32
  %8 = icmp ne i32 %7, 0
  br i1 %8, label %9, label %15

9:                                                ; preds = %1
  %10 = load ptr, ptr %2, align 8
  %11 = load i64, ptr %10, align 4
  %12 = and i64 %11, 536870911
  %13 = trunc i64 %12 to i32
  %14 = icmp ne i32 %13, 536870911
  br label %15

15:                                               ; preds = %9, %1
  %16 = phi i1 [ false, %1 ], [ %14, %9 ]
  %17 = zext i1 %16 to i32
  ret i32 %17
}

; Function Attrs: nounwind uwtable
define internal i32 @Gia_ObjIsAnd(ptr noundef %0) #0 {
  %2 = alloca ptr, align 8
  store ptr %0, ptr %2, align 8
  %3 = load ptr, ptr %2, align 8
  %4 = load i64, ptr %3, align 4
  %5 = lshr i64 %4, 31
  %6 = and i64 %5, 1
  %7 = trunc i64 %6 to i32
  %8 = icmp ne i32 %7, 0
  br i1 %8, label %15, label %9

9:                                                ; preds = %1
  %10 = load ptr, ptr %2, align 8
  %11 = load i64, ptr %10, align 4
  %12 = and i64 %11, 536870911
  %13 = trunc i64 %12 to i32
  %14 = icmp ne i32 %13, 536870911
  br label %15

15:                                               ; preds = %9, %1
  %16 = phi i1 [ false, %1 ], [ %14, %9 ]
  %17 = zext i1 %16 to i32
  ret i32 %17
}

; Function Attrs: nounwind uwtable
define internal ptr @Gia_ManObj(ptr noundef %0, i32 noundef %1) #0 {
  %3 = alloca ptr, align 8
  %4 = alloca i32, align 4
  store ptr %0, ptr %3, align 8
  store i32 %1, ptr %4, align 4
  %5 = load ptr, ptr %3, align 8
  %6 = getelementptr inbounds %struct.Gia_Man_t_, ptr %5, i32 0, i32 6
  %7 = load ptr, ptr %6, align 8
  %8 = load i32, ptr %4, align 4
  %9 = sext i32 %8 to i64
  %10 = getelementptr inbounds %struct.Gia_Obj_t_, ptr %7, i64 %9
  ret ptr %10
}

; Function Attrs: nounwind uwtable
define internal i32 @Abc_MaxInt(i32 noundef %0, i32 noundef %1) #0 {
  %3 = alloca i32, align 4
  %4 = alloca i32, align 4
  store i32 %0, ptr %3, align 4
  store i32 %1, ptr %4, align 4
  %5 = load i32, ptr %3, align 4
  %6 = load i32, ptr %4, align 4
  %7 = icmp sgt i32 %5, %6
  br i1 %7, label %8, label %10

8:                                                ; preds = %2
  %9 = load i32, ptr %3, align 4
  br label %12

10:                                               ; preds = %2
  %11 = load i32, ptr %4, align 4
  br label %12

12:                                               ; preds = %10, %8
  %13 = phi i32 [ %9, %8 ], [ %11, %10 ]
  ret i32 %13
}

; Function Attrs: nounwind uwtable
define internal i32 @Gia_ObjLevel(ptr noundef %0, ptr noundef %1) #0 {
  %3 = alloca ptr, align 8
  %4 = alloca ptr, align 8
  store ptr %0, ptr %3, align 8
  store ptr %1, ptr %4, align 8
  %5 = load ptr, ptr %3, align 8
  %6 = load ptr, ptr %3, align 8
  %7 = load ptr, ptr %4, align 8
  %8 = call i32 @Gia_ObjId(ptr noundef %6, ptr noundef %7)
  %9 = call i32 @Gia_ObjLevelId(ptr noundef %5, i32 noundef %8)
  ret i32 %9
}

; Function Attrs: nounwind uwtable
define internal void @Gia_ObjSetLevel(ptr noundef %0, ptr noundef %1, i32 noundef %2) #0 {
  %4 = alloca ptr, align 8
  %5 = alloca ptr, align 8
  %6 = alloca i32, align 4
  store ptr %0, ptr %4, align 8
  store ptr %1, ptr %5, align 8
  store i32 %2, ptr %6, align 4
  %7 = load ptr, ptr %4, align 8
  %8 = load ptr, ptr %4, align 8
  %9 = load ptr, ptr %5, align 8
  %10 = call i32 @Gia_ObjId(ptr noundef %8, ptr noundef %9)
  %11 = load i32, ptr %6, align 4
  call void @Gia_ObjSetLevelId(ptr noundef %7, i32 noundef %10, i32 noundef %11)
  ret void
}

; Function Attrs: nounwind uwtable
define internal i32 @Vec_IntEntry(ptr noundef %0, i32 noundef %1) #0 {
  %3 = alloca ptr, align 8
  %4 = alloca i32, align 4
  store ptr %0, ptr %3, align 8
  store i32 %1, ptr %4, align 4
  %5 = load ptr, ptr %3, align 8
  %6 = getelementptr inbounds %struct.Vec_Int_t_, ptr %5, i32 0, i32 2
  %7 = load ptr, ptr %6, align 8
  %8 = load i32, ptr %4, align 4
  %9 = sext i32 %8 to i64
  %10 = getelementptr inbounds i32, ptr %7, i64 %9
  %11 = load i32, ptr %10, align 4
  ret i32 %11
}

; Function Attrs: nounwind uwtable
define internal ptr @Gia_ManCi(ptr noundef %0, i32 noundef %1) #0 {
  %3 = alloca ptr, align 8
  %4 = alloca i32, align 4
  store ptr %0, ptr %3, align 8
  store i32 %1, ptr %4, align 4
  %5 = load ptr, ptr %3, align 8
  %6 = load ptr, ptr %3, align 8
  %7 = getelementptr inbounds %struct.Gia_Man_t_, ptr %6, i32 0, i32 11
  %8 = load ptr, ptr %7, align 8
  %9 = load i32, ptr %4, align 4
  %10 = call i32 @Vec_IntEntry(ptr noundef %8, i32 noundef %9)
  %11 = call ptr @Gia_ManObj(ptr noundef %5, i32 noundef %10)
  ret ptr %11
}

; Function Attrs: nounwind uwtable
define internal i32 @Vec_IntSize(ptr noundef %0) #0 {
  %2 = alloca ptr, align 8
  store ptr %0, ptr %2, align 8
  %3 = load ptr, ptr %2, align 8
  %4 = getelementptr inbounds %struct.Vec_Int_t_, ptr %3, i32 0, i32 1
  %5 = load i32, ptr %4, align 4
  ret i32 %5
}

; Function Attrs: nounwind uwtable
define internal i32 @Gia_ManObjNum(ptr noundef %0) #0 {
  %2 = alloca ptr, align 8
  store ptr %0, ptr %2, align 8
  %3 = load ptr, ptr %2, align 8
  %4 = getelementptr inbounds %struct.Gia_Man_t_, ptr %3, i32 0, i32 4
  %5 = load i32, ptr %4, align 8
  ret i32 %5
}

; Function Attrs: nounwind uwtable
define i32 @Gia_ManSetLevels(ptr noundef %0, ptr noundef %1) #0 {
  %3 = alloca i32, align 4
  %4 = alloca ptr, align 8
  %5 = alloca ptr, align 8
  %6 = alloca ptr, align 8
  %7 = alloca i32, align 4
  store ptr %0, ptr %4, align 8
  store ptr %1, ptr %5, align 8
  %8 = load ptr, ptr %5, align 8
  %9 = icmp eq ptr %8, null
  br i1 %9, label %10, label %13

10:                                               ; preds = %2
  %11 = load ptr, ptr %4, align 8
  %12 = call i32 @Gia_ManLevelNum(ptr noundef %11)
  store i32 %12, ptr %3, align 4
  br label %98

13:                                               ; preds = %2
  %14 = load ptr, ptr %4, align 8
  %15 = load ptr, ptr %4, align 8
  %16 = call i32 @Gia_ManObjNum(ptr noundef %15)
  call void @Gia_ManCleanLevels(ptr noundef %14, i32 noundef %16)
  %17 = load ptr, ptr %4, align 8
  %18 = getelementptr inbounds %struct.Gia_Man_t_, ptr %17, i32 0, i32 22
  store i32 0, ptr %18, align 8
  store i32 0, ptr %7, align 4
  br label %19

19:                                               ; preds = %48, %13
  %20 = load i32, ptr %7, align 4
  %21 = load ptr, ptr %4, align 8
  %22 = getelementptr inbounds %struct.Gia_Man_t_, ptr %21, i32 0, i32 11
  %23 = load ptr, ptr %22, align 8
  %24 = call i32 @Vec_IntSize(ptr noundef %23)
  %25 = icmp slt i32 %20, %24
  br i1 %25, label %26, label %31

26:                                               ; preds = %19
  %27 = load ptr, ptr %4, align 8
  %28 = load i32, ptr %7, align 4
  %29 = call ptr @Gia_ManCi(ptr noundef %27, i32 noundef %28)
  store ptr %29, ptr %6, align 8
  %30 = icmp ne ptr %29, null
  br label %31

31:                                               ; preds = %26, %19
  %32 = phi i1 [ false, %19 ], [ %30, %26 ]
  br i1 %32, label %33, label %51

33:                                               ; preds = %31
  %34 = load ptr, ptr %4, align 8
  %35 = load ptr, ptr %6, align 8
  %36 = load ptr, ptr %5, align 8
  %37 = load i32, ptr %7, align 4
  %38 = call i32 @Vec_IntEntry(ptr noundef %36, i32 noundef %37)
  call void @Gia_ObjSetLevel(ptr noundef %34, ptr noundef %35, i32 noundef %38)
  %39 = load ptr, ptr %4, align 8
  %40 = getelementptr inbounds %struct.Gia_Man_t_, ptr %39, i32 0, i32 22
  %41 = load i32, ptr %40, align 8
  %42 = load ptr, ptr %4, align 8
  %43 = load ptr, ptr %6, align 8
  %44 = call i32 @Gia_ObjLevel(ptr noundef %42, ptr noundef %43)
  %45 = call i32 @Abc_MaxInt(i32 noundef %41, i32 noundef %44)
  %46 = load ptr, ptr %4, align 8
  %47 = getelementptr inbounds %struct.Gia_Man_t_, ptr %46, i32 0, i32 22
  store i32 %45, ptr %47, align 8
  br label %48

48:                                               ; preds = %33
  %49 = load i32, ptr %7, align 4
  %50 = add nsw i32 %49, 1
  store i32 %50, ptr %7, align 4
  br label %19, !llvm.loop !28

51:                                               ; preds = %31
  store i32 0, ptr %7, align 4
  br label %52

52:                                               ; preds = %91, %51
  %53 = load i32, ptr %7, align 4
  %54 = load ptr, ptr %4, align 8
  %55 = getelementptr inbounds %struct.Gia_Man_t_, ptr %54, i32 0, i32 4
  %56 = load i32, ptr %55, align 8
  %57 = icmp slt i32 %53, %56
  br i1 %57, label %58, label %63

58:                                               ; preds = %52
  %59 = load ptr, ptr %4, align 8
  %60 = load i32, ptr %7, align 4
  %61 = call ptr @Gia_ManObj(ptr noundef %59, i32 noundef %60)
  store ptr %61, ptr %6, align 8
  %62 = icmp ne ptr %61, null
  br label %63

63:                                               ; preds = %58, %52
  %64 = phi i1 [ false, %52 ], [ %62, %58 ]
  br i1 %64, label %65, label %94

65:                                               ; preds = %63
  %66 = load ptr, ptr %6, align 8
  %67 = call i32 @Gia_ObjIsAnd(ptr noundef %66)
  %68 = icmp ne i32 %67, 0
  br i1 %68, label %69, label %72

69:                                               ; preds = %65
  %70 = load ptr, ptr %4, align 8
  %71 = load ptr, ptr %6, align 8
  call void @Gia_ObjSetGateLevel(ptr noundef %70, ptr noundef %71)
  br label %81

72:                                               ; preds = %65
  %73 = load ptr, ptr %6, align 8
  %74 = call i32 @Gia_ObjIsCo(ptr noundef %73)
  %75 = icmp ne i32 %74, 0
  br i1 %75, label %76, label %79

76:                                               ; preds = %72
  %77 = load ptr, ptr %4, align 8
  %78 = load ptr, ptr %6, align 8
  call void @Gia_ObjSetCoLevel(ptr noundef %77, ptr noundef %78)
  br label %80

79:                                               ; preds = %72
  br label %91

80:                                               ; preds = %76
  br label %81

81:                                               ; preds = %80, %69
  %82 = load ptr, ptr %4, align 8
  %83 = getelementptr inbounds %struct.Gia_Man_t_, ptr %82, i32 0, i32 22
  %84 = load i32, ptr %83, align 8
  %85 = load ptr, ptr %4, align 8
  %86 = load ptr, ptr %6, align 8
  %87 = call i32 @Gia_ObjLevel(ptr noundef %85, ptr noundef %86)
  %88 = call i32 @Abc_MaxInt(i32 noundef %84, i32 noundef %87)
  %89 = load ptr, ptr %4, align 8
  %90 = getelementptr inbounds %struct.Gia_Man_t_, ptr %89, i32 0, i32 22
  store i32 %88, ptr %90, align 8
  br label %91

91:                                               ; preds = %81, %79
  %92 = load i32, ptr %7, align 4
  %93 = add nsw i32 %92, 1
  store i32 %93, ptr %7, align 4
  br label %52, !llvm.loop !29

94:                                               ; preds = %63
  %95 = load ptr, ptr %4, align 8
  %96 = getelementptr inbounds %struct.Gia_Man_t_, ptr %95, i32 0, i32 22
  %97 = load i32, ptr %96, align 8
  store i32 %97, ptr %3, align 4
  br label %98

98:                                               ; preds = %94, %10
  %99 = load i32, ptr %3, align 4
  ret i32 %99
}