; Function Attrs: nounwind uwtable
define i32 @Gia_ManSetLevels(ptr noundef captures(none) %0, ptr noundef readonly %1) local_unnamed_addr #2 {
  %3 = icmp eq ptr %1, null
  br i1 %3, label %4, label %6

4:                                                ; preds = %2
  %5 = tail call i32 @Gia_ManLevelNum(ptr noundef %0)
  br label %.critedge2

6:                                                ; preds = %2
  %7 = getelementptr i8, ptr %0, i64 24
  %.val = load i32, ptr %7, align 8
  tail call void @Gia_ManCleanLevels(ptr noundef %0, i32 noundef %.val)
  %8 = getelementptr inbounds nuw i8, ptr %0, i64 168
  store i32 0, ptr %8, align 8
  %9 = getelementptr i8, ptr %0, i64 32
  %10 = getelementptr inbounds nuw i8, ptr %0, i64 64
  %11 = load ptr, ptr %10, align 8
  %12 = getelementptr i8, ptr %11, i64 4
  %.val4762 = load i32, ptr %12, align 4
  %13 = icmp sgt i32 %.val4762, 0
  br i1 %13, label %.lr.ph, label %.critedge

.lr.ph:                                           ; preds = %6
  %14 = getelementptr i8, ptr %1, i64 8
  %15 = getelementptr i8, ptr %0, i64 160
  %.val4873 = load ptr, ptr %9, align 8
  %.not74 = icmp eq ptr %.val4873, null
  br i1 %.not74, label %.critedge, label %.lr.ph77

16:                                               ; preds = %.lr.ph77
  %.val48 = load ptr, ptr %9, align 8
  %.not = icmp eq ptr %.val48, null
  br i1 %.not, label %.critedge, label %.lr.ph77, !llvm.loop !26

.lr.ph77:                                         ; preds = %.lr.ph, %16
  %.val4876 = phi ptr [ %.val48, %16 ], [ %.val4873, %.lr.ph ]
  %17 = phi ptr [ %41, %16 ], [ %11, %.lr.ph ]
  %indvars.iv75 = phi i64 [ %indvars.iv.next, %16 ], [ 0, %.lr.ph ]
  %18 = getelementptr i8, ptr %17, i64 8
  %.val49.val = load ptr, ptr %18, align 8
  %19 = getelementptr inbounds nuw i32, ptr %.val49.val, i64 %indvars.iv75
  %20 = load i32, ptr %19, align 4
  %21 = sext i32 %20 to i64
  %22 = getelementptr inbounds %struct.Gia_Obj_t_, ptr %.val4876, i64 %21
  %.val46 = load ptr, ptr %14, align 8
  %23 = getelementptr inbounds nuw i32, ptr %.val46, i64 %indvars.iv75
  %24 = load i32, ptr %23, align 4
  %.val55 = load ptr, ptr %15, align 8
  %25 = ptrtoint ptr %22 to i64
  %26 = add nsw i32 %20, 1
  tail call fastcc void @Vec_IntFillExtra(ptr noundef %.val55, i32 noundef %26)
  %27 = getelementptr i8, ptr %.val55, i64 8
  %.val.i.i.i = load ptr, ptr %27, align 8
  %28 = shl nsw i64 %21, 2
  %29 = getelementptr inbounds i8, ptr %.val.i.i.i, i64 %28
  store i32 %24, ptr %29, align 4
  %30 = load i32, ptr %8, align 8
  %.val52 = load ptr, ptr %9, align 8
  %.val53 = load ptr, ptr %15, align 8
  %31 = ptrtoint ptr %.val52 to i64
  %32 = sub i64 %25, %31
  %33 = sdiv exact i64 %32, 12
  %34 = trunc i64 %33 to i32
  %35 = add nsw i32 %34, 1
  tail call fastcc void @Vec_IntFillExtra(ptr noundef %.val53, i32 noundef %35)
  %36 = getelementptr i8, ptr %.val53, i64 8
  %.val.i.i.i56 = load ptr, ptr %36, align 8
  %sext.i57 = shl i64 %33, 32
  %37 = ashr exact i64 %sext.i57, 30
  %38 = getelementptr inbounds i8, ptr %.val.i.i.i56, i64 %37
  %39 = load i32, ptr %38, align 4
  %40 = tail call noundef i32 @llvm.smax.i32(i32 %30, i32 %39)
  store i32 %40, ptr %8, align 8
  %indvars.iv.next = add nuw nsw i64 %indvars.iv75, 1
  %41 = load ptr, ptr %10, align 8
  %42 = getelementptr i8, ptr %41, i64 4
  %.val47 = load i32, ptr %42, align 4
  %43 = sext i32 %.val47 to i64
  %44 = icmp slt i64 %indvars.iv.next, %43
  br i1 %44, label %16, label %.critedge, !llvm.loop !26

.critedge:                                        ; preds = %.lr.ph77, %16, %.lr.ph, %6
  %45 = phi i32 [ 0, %6 ], [ 0, %.lr.ph ], [ %40, %16 ], [ %40, %.lr.ph77 ]
  %46 = load i32, ptr %7, align 8
  %47 = icmp sgt i32 %46, 0
  br i1 %47, label %.lr.ph66, label %.critedge2

.lr.ph66:                                         ; preds = %.critedge
  %48 = getelementptr i8, ptr %0, i64 160
  br label %49

49:                                               ; preds = %.lr.ph66, %93
  %50 = phi i32 [ %45, %.lr.ph66 ], [ %94, %93 ]
  %51 = phi i32 [ %46, %.lr.ph66 ], [ %95, %93 ]
  %indvars.iv69 = phi i64 [ 0, %.lr.ph66 ], [ %indvars.iv.next70, %93 ]
  %.val43 = load ptr, ptr %9, align 8
  %52 = getelementptr inbounds nuw %struct.Gia_Obj_t_, ptr %.val43, i64 %indvars.iv69
  %.not40 = icmp eq ptr %.val43, null
  br i1 %.not40, label %.critedge2, label %53

53:                                               ; preds = %49
  %.val44 = load i64, ptr %52, align 4
  %54 = and i64 %.val44, 2147483648
  %.not.i = icmp eq i64 %54, 0
  %55 = and i64 %.val44, 536870911
  %56 = icmp ne i64 %55, 536870911
  %narrow.i = and i1 %.not.i, %56
  br i1 %narrow.i, label %57, label %58

57:                                               ; preds = %53
  tail call fastcc void @Gia_ObjSetGateLevel(ptr noundef nonnull %0, ptr noundef %52)
  %.pre72 = ptrtoint ptr %52 to i64
  br label %81

58:                                               ; preds = %53
  %.not.i58 = icmp ne i64 %54, 0
  %narrow.i59 = and i1 %.not.i58, %56
  br i1 %narrow.i59, label %59, label %93

59:                                               ; preds = %58
  %60 = sub nsw i64 0, %55
  %61 = getelementptr inbounds %struct.Gia_Obj_t_, ptr %52, i64 %60
  %.val4.i = load ptr, ptr %48, align 8
  %62 = ptrtoint ptr %61 to i64
  %63 = ptrtoint ptr %.val43 to i64
  %64 = sub i64 %62, %63
  %65 = sdiv exact i64 %64, 12
  %66 = trunc i64 %65 to i32
  %67 = add nsw i32 %66, 1
  tail call fastcc void @Vec_IntFillExtra(ptr noundef %.val4.i, i32 noundef %67)
  %68 = getelementptr i8, ptr %.val4.i, i64 8
  %.val.i.i.i.i = load ptr, ptr %68, align 8
  %sext.i.i = shl i64 %65, 32
  %69 = ashr exact i64 %sext.i.i, 30
  %70 = getelementptr inbounds i8, ptr %.val.i.i.i.i, i64 %69
  %71 = load i32, ptr %70, align 4
  %.val5.i = load ptr, ptr %9, align 8
  %.val6.i = load ptr, ptr %48, align 8
  %72 = ptrtoint ptr %52 to i64
  %73 = ptrtoint ptr %.val5.i to i64
  %74 = sub i64 %72, %73
  %75 = sdiv exact i64 %74, 12
  %76 = trunc i64 %75 to i32
  %77 = add nsw i32 %76, 1
  tail call fastcc void @Vec_IntFillExtra(ptr noundef %.val6.i, i32 noundef %77)
  %78 = getelementptr i8, ptr %.val6.i, i64 8
  %.val.i.i.i7.i = load ptr, ptr %78, align 8
  %sext.i8.i = shl i64 %75, 32
  %79 = ashr exact i64 %sext.i8.i, 30
  %80 = getelementptr inbounds i8, ptr %.val.i.i.i7.i, i64 %79
  store i32 %71, ptr %80, align 4
  br label %81

81:                                               ; preds = %59, %57
  %.pre-phi = phi i64 [ %72, %59 ], [ %.pre72, %57 ]
  %82 = load i32, ptr %8, align 8
  %.val50 = load ptr, ptr %9, align 8
  %.val51 = load ptr, ptr %48, align 8
  %83 = ptrtoint ptr %.val50 to i64
  %84 = sub i64 %.pre-phi, %83
  %85 = sdiv exact i64 %84, 12
  %86 = trunc i64 %85 to i32
  %87 = add nsw i32 %86, 1
  tail call fastcc void @Vec_IntFillExtra(ptr noundef %.val51, i32 noundef %87)
  %88 = getelementptr i8, ptr %.val51, i64 8
  %.val.i.i.i60 = load ptr, ptr %88, align 8
  %sext.i61 = shl i64 %85, 32
  %89 = ashr exact i64 %sext.i61, 30
  %90 = getelementptr inbounds i8, ptr %.val.i.i.i60, i64 %89
  %91 = load i32, ptr %90, align 4
  %92 = tail call noundef i32 @llvm.smax.i32(i32 %82, i32 %91)
  store i32 %92, ptr %8, align 8
  %.pre = load i32, ptr %7, align 8
  br label %93

93:                                               ; preds = %58, %81
  %94 = phi i32 [ %50, %58 ], [ %92, %81 ]
  %95 = phi i32 [ %51, %58 ], [ %.pre, %81 ]
  %indvars.iv.next70 = add nuw nsw i64 %indvars.iv69, 1
  %96 = sext i32 %95 to i64
  %97 = icmp slt i64 %indvars.iv.next70, %96
  br i1 %97, label %49, label %.critedge2, !llvm.loop !27

.critedge2:                                       ; preds = %93, %49, %.critedge, %4
  %.036 = phi i32 [ %5, %4 ], [ %45, %.critedge ], [ %50, %49 ], [ %94, %93 ]
  ret i32 %.036
}